target datalayout = "e-m:e-p270:32:32-p271:32:32-p272:64:64-i64:64-i128:128-f80:128-n8:16:32:64-S128"
target triple = "x86_64-pc-linux-gnu"

%struct._packet_info = type { ptr, ptr, i32, i32, %struct.nstime_t, %struct.nstime_t, %struct.nstime_t, i8, ptr, ptr, ptr, ptr, %struct._address, %struct._address, %struct._address, %struct._address, %struct._address, %struct._address, i32, ptr, i8, [3 x i8], %struct.anon, i32, i32, i32, i32, ptr, i8, ptr, ptr, i16, i16, i32, i32, i16, i32, i32, ptr, ptr, ptr, i8, i8, i16, i16, i16, i32, i16, i16, ptr, ptr, ptr, ptr, ptr, i32, i32 }
%struct.nstime_t = type { i64, i32 }
%struct._address = type { i32, i32, ptr, ptr }
%struct.anon = type { i8, [3 x i8] }

@hf_lisp_mreg_flags_pmr = internal global i32 0, align 4
@hf_lisp_mreg_flags_sec = internal global i32 0, align 4
@hf_lisp_mreg_flags_xtrid = internal global i32 0, align 4
@hf_lisp_mreg_flags_rtr = internal global i32 0, align 4
@.str.19 = private unnamed_addr constant [7 x i8] c" (RTR)\00", align 1
@hf_lisp_mreg_res = internal global i32 0, align 4
@hf_lisp_mreg_flags_wmn = internal global i32 0, align 4
@hf_lisp_records = internal global i32 0, align 4
@hf_lisp_nonce = internal global i32 0, align 4
@hf_lisp_keyid = internal global i32 0, align 4
@hf_lisp_authlen = internal global i32 0, align 4
@hf_lisp_auth = internal global i32 0, align 4
@hf_lisp_xtrid = internal global i32 0, align 4
@hf_lisp_siteid = internal global i32 0, align 4

; Function Attrs: null_pointer_is_valid sspstrong uwtable
define hidden i32 @dissect_lisp_map_register(ptr noundef %0, ptr noundef %1, ptr noundef %2, i32 noundef %3, ptr noundef %4, i1 noundef zeroext %5) #0 {
  %7 = alloca i32, align 4
  %8 = alloca ptr, align 8
  %9 = alloca ptr, align 8
  %10 = alloca ptr, align 8
  %11 = alloca i32, align 4
  %12 = alloca ptr, align 8
  %13 = alloca i8, align 1
  %14 = alloca i32, align 4
  %15 = alloca i8, align 1
  %16 = alloca ptr, align 8
  %17 = alloca i16, align 2
  %18 = alloca i16, align 2
  %19 = alloca i8, align 1
  %20 = alloca i8, align 1
  %21 = alloca i32, align 4
  store ptr %0, ptr %8, align 8
  store ptr %1, ptr %9, align 8
  store ptr %2, ptr %10, align 8
  store i32 %3, ptr %11, align 4
  store ptr %4, ptr %12, align 8
  %22 = zext i1 %5 to i8
  store i8 %22, ptr %13, align 1
  call void @llvm.lifetime.start.p0(i64 4, ptr %14) #3
  call void @llvm.lifetime.start.p0(i64 1, ptr %15) #3
  store i8 0, ptr %15, align 1
  call void @llvm.lifetime.start.p0(i64 8, ptr %16) #3
  call void @llvm.lifetime.start.p0(i64 2, ptr %17) #3
  store i16 0, ptr %17, align 2
  call void @llvm.lifetime.start.p0(i64 2, ptr %18) #3
  call void @llvm.lifetime.start.p0(i64 1, ptr %19) #3
  call void @llvm.lifetime.start.p0(i64 1, ptr %20) #3
  %23 = load ptr, ptr %10, align 8
  %24 = load i32, ptr @hf_lisp_mreg_flags_pmr, align 4
  %25 = load ptr, ptr %8, align 8
  %26 = load i32, ptr %11, align 4
  %27 = call ptr @proto_tree_add_item(ptr noundef %23, i32 noundef %24, ptr noundef %25, i32 noundef %26, i32 noundef 3, i32 noundef 0)
  %28 = load ptr, ptr %10, align 8
  %29 = load i32, ptr @hf_lisp_mreg_flags_sec, align 4
  %30 = load ptr, ptr %8, align 8
  %31 = load i32, ptr %11, align 4
  %32 = call ptr @proto_tree_add_item(ptr noundef %28, i32 noundef %29, ptr noundef %30, i32 noundef %31, i32 noundef 3, i32 noundef 0)
  %33 = load ptr, ptr %8, align 8
  %34 = load i32, ptr %11, align 4
  %35 = call zeroext i16 @tvb_get_ntohs(ptr noundef %33, i32 noundef %34)
  store i16 %35, ptr %18, align 2
  %36 = load i16, ptr %18, align 2
  %37 = zext i16 %36 to i32
  %38 = and i32 %37, 512
  %39 = icmp ne i32 %38, 0
  %40 = zext i1 %39 to i8
  store i8 %40, ptr %19, align 1
  %41 = load i16, ptr %18, align 2
  %42 = zext i16 %41 to i32
  %43 = and i32 %42, 256
  %44 = icmp ne i32 %43, 0
  %45 = zext i1 %44 to i8
  store i8 %45, ptr %20, align 1
  %46 = load ptr, ptr %10, align 8
  %47 = load i32, ptr @hf_lisp_mreg_flags_xtrid, align 4
  %48 = load ptr, ptr %8, align 8
  %49 = load i32, ptr %11, align 4
  %50 = call ptr @proto_tree_add_item(ptr noundef %46, i32 noundef %47, ptr noundef %48, i32 noundef %49, i32 noundef 3, i32 noundef 0)
  %51 = load ptr, ptr %10, align 8
  %52 = load i32, ptr @hf_lisp_mreg_flags_rtr, align 4
  %53 = load ptr, ptr %8, align 8
  %54 = load i32, ptr %11, align 4
  %55 = call ptr @proto_tree_add_item(ptr noundef %51, i32 noundef %52, ptr noundef %53, i32 noundef %54, i32 noundef 3, i32 noundef 0)
  %56 = load i8, ptr %20, align 1, !range !8, !noundef !9
  %57 = trunc i8 %56 to i1
  br i1 %57, label %58, label %62

58:                                               ; preds = %6
  %59 = load ptr, ptr %9, align 8
  %60 = getelementptr inbounds nuw %struct._packet_info, ptr %59, i32 0, i32 1
  %61 = load ptr, ptr %60, align 8
  call void @col_append_str(ptr noundef %61, i32 noundef 25, ptr noundef @.str.19)
  br label %62

62:                                               ; preds = %58, %6
  %63 = load ptr, ptr %10, align 8
  %64 = load i32, ptr @hf_lisp_mreg_res, align 4
  %65 = load ptr, ptr %8, align 8
  %66 = load i32, ptr %11, align 4
  %67 = call ptr @proto_tree_add_item(ptr noundef %63, i32 noundef %64, ptr noundef %65, i32 noundef %66, i32 noundef 3, i32 noundef 0)
  %68 = load ptr, ptr %10, align 8
  %69 = load i32, ptr @hf_lisp_mreg_flags_wmn, align 4
  %70 = load ptr, ptr %8, align 8
  %71 = load i32, ptr %11, align 4
  %72 = call ptr @proto_tree_add_item(ptr noundef %68, i32 noundef %69, ptr noundef %70, i32 noundef %71, i32 noundef 3, i32 noundef 0)
  %73 = load i32, ptr %11, align 4
  %74 = add i32 %73, 3
  store i32 %74, ptr %11, align 4
  %75 = load ptr, ptr %8, align 8
  %76 = load i32, ptr %11, align 4
  %77 = call zeroext i8 @tvb_get_uint8(ptr noundef %75, i32 noundef %76)
  store i8 %77, ptr %15, align 1
  %78 = load ptr, ptr %10, align 8
  %79 = load i32, ptr @hf_lisp_records, align 4
  %80 = load ptr, ptr %8, align 8
  %81 = load i32, ptr %11, align 4
  %82 = call ptr @proto_tree_add_item(ptr noundef %78, i32 noundef %79, ptr noundef %80, i32 noundef %81, i32 noundef 1, i32 noundef 0)
  %83 = load i32, ptr %11, align 4
  %84 = add i32 %83, 1
  store i32 %84, ptr %11, align 4
  %85 = load ptr, ptr %10, align 8
  %86 = load i32, ptr @hf_lisp_nonce, align 4
  %87 = load ptr, ptr %8, align 8
  %88 = load i32, ptr %11, align 4
  %89 = call ptr @proto_tree_add_item(ptr noundef %85, i32 noundef %86, ptr noundef %87, i32 noundef %88, i32 noundef 8, i32 noundef 0)
  %90 = load i32, ptr %11, align 4
  %91 = add i32 %90, 8
  store i32 %91, ptr %11, align 4
  %92 = load ptr, ptr %10, align 8
  %93 = load i32, ptr @hf_lisp_keyid, align 4
  %94 = load ptr, ptr %8, align 8
  %95 = load i32, ptr %11, align 4
  %96 = call ptr @proto_tree_add_item(ptr noundef %92, i32 noundef %93, ptr noundef %94, i32 noundef %95, i32 noundef 2, i32 noundef 0)
  %97 = load i32, ptr %11, align 4
  %98 = add i32 %97, 2
  store i32 %98, ptr %11, align 4
  %99 = load ptr, ptr %8, align 8
  %100 = load i32, ptr %11, align 4
  %101 = call zeroext i16 @tvb_get_ntohs(ptr noundef %99, i32 noundef %100)
  store i16 %101, ptr %17, align 2
  %102 = load ptr, ptr %10, align 8
  %103 = load i32, ptr @hf_lisp_authlen, align 4
  %104 = load ptr, ptr %8, align 8
  %105 = load i32, ptr %11, align 4
  %106 = call ptr @proto_tree_add_item(ptr noundef %102, i32 noundef %103, ptr noundef %104, i32 noundef %105, i32 noundef 2, i32 noundef 0)
  %107 = load i32, ptr %11, align 4
  %108 = add i32 %107, 2
  store i32 %108, ptr %11, align 4
  %109 = load ptr, ptr %10, align 8
  %110 = load i32, ptr @hf_lisp_auth, align 4
  %111 = load ptr, ptr %8, align 8
  %112 = load i32, ptr %11, align 4
  %113 = load i16, ptr %17, align 2
  %114 = zext i16 %113 to i32
  %115 = call ptr @proto_tree_add_item(ptr noundef %109, i32 noundef %110, ptr noundef %111, i32 noundef %112, i32 noundef %114, i32 noundef 0)
  %116 = load i16, ptr %17, align 2
  %117 = zext i16 %116 to i32
  %118 = load i32, ptr %11, align 4
  %119 = add i32 %118, %117
  store i32 %119, ptr %11, align 4
  store i32 0, ptr %14, align 4
  br label %120

120:                                              ; preds = %135, %62
  %121 = load i32, ptr %14, align 4
  %122 = load i8, ptr %15, align 1
  %123 = zext i8 %122 to i32
  %124 = icmp slt i32 %121, %123
  br i1 %124, label %125, label %138

125:                                              ; preds = %120
  %126 = load ptr, ptr %8, align 8
  %127 = load ptr, ptr %9, align 8
  %128 = load ptr, ptr %10, align 8
  %129 = load i8, ptr %15, align 1
  %130 = load i32, ptr %14, align 4
  %131 = add i32 %130, 1
  %132 = load i32, ptr %11, align 4
  %133 = load ptr, ptr %12, align 8
  %134 = call i32 @dissect_lisp_mapping(ptr noundef %126, ptr noundef %127, ptr noundef %128, i8 noundef zeroext %129, i32 noundef %131, i1 noundef zeroext false, i32 noundef %132, ptr noundef %133)
  store i32 %134, ptr %11, align 4
  br label %135

135:                                              ; preds = %125
  %136 = load i32, ptr %14, align 4
  %137 = add i32 %136, 1
  store i32 %137, ptr %14, align 4
  br label %120, !llvm.loop !14

138:                                              ; preds = %120
  %139 = load i8, ptr %19, align 1, !range !8, !noundef !9
  %140 = trunc i8 %139 to i1
  br i1 %140, label %141, label %155

141:                                              ; preds = %138
  %142 = load ptr, ptr %10, align 8
  %143 = load i32, ptr @hf_lisp_xtrid, align 4
  %144 = load ptr, ptr %8, align 8
  %145 = load i32, ptr %11, align 4
  %146 = call ptr @proto_tree_add_item(ptr noundef %142, i32 noundef %143, ptr noundef %144, i32 noundef %145, i32 noundef 16, i32 noundef 0)
  %147 = load ptr, ptr %10, align 8
  %148 = load i32, ptr @hf_lisp_siteid, align 4
  %149 = load ptr, ptr %8, align 8
  %150 = load i32, ptr %11, align 4
  %151 = add i32 %150, 16
  %152 = call ptr @proto_tree_add_item(ptr noundef %147, i32 noundef %148, ptr noundef %149, i32 noundef %151, i32 noundef 8, i32 noundef 0)
  %153 = load i32, ptr %11, align 4
  %154 = add i32 %153, 24
  store i32 %154, ptr %11, align 4
  br label %155

155:                                              ; preds = %141, %138
  %156 = load i8, ptr %13, align 1, !range !8, !noundef !9
  %157 = trunc i8 %156 to i1
  br i1 %157, label %158, label %166

158:                                              ; preds = %155
  %159 = load ptr, ptr %8, align 8
  %160 = load i32, ptr %11, align 4
  %161 = call ptr @tvb_new_subset_remaining(ptr noundef %159, i32 noundef %160)
  store ptr %161, ptr %16, align 8
  %162 = load ptr, ptr %16, align 8
  %163 = load ptr, ptr %9, align 8
  %164 = load ptr, ptr %10, align 8
  %165 = call i32 @call_data_dissector(ptr noundef %162, ptr noundef %163, ptr noundef %164)
  br label %168

166:                                              ; preds = %155
  %167 = load i32, ptr %11, align 4
  store i32 %167, ptr %7, align 4
  store i32 1, ptr %21, align 4
  br label %169

168:                                              ; preds = %158
  store i32 0, ptr %7, align 4
  store i32 1, ptr %21, align 4
  br label %169

169:                                              ; preds = %168, %166
  call void @llvm.lifetime.end.p0(i64 1, ptr %20) #3
  call void @llvm.lifetime.end.p0(i64 1, ptr %19) #3
  call void @llvm.lifetime.end.p0(i64 2, ptr %18) #3
  call void @llvm.lifetime.end.p0(i64 2, ptr %17) #3
  call void @llvm.lifetime.end.p0(i64 8, ptr %16) #3
  call void @llvm.lifetime.end.p0(i64 1, ptr %15) #3
  call void @llvm.lifetime.end.p0(i64 4, ptr %14) #3
  %170 = load i32, ptr %7, align 4
  ret i32 %170
}