; Function Attrs: null_pointer_is_valid sspstrong uwtable
define hidden i32 @dissect_lisp_map_register(ptr noundef %0, ptr noundef %1, ptr noundef %2, i32 noundef %3, ptr noundef %4, i1 noundef zeroext %5) local_unnamed_addr #0 {
  %7 = load i32, ptr @hf_lisp_mreg_flags_pmr, align 4
  %8 = tail call ptr @proto_tree_add_item(ptr noundef %2, i32 noundef %7, ptr noundef %0, i32 noundef %3, i32 noundef 3, i32 noundef 0)
  %9 = load i32, ptr @hf_lisp_mreg_flags_sec, align 4
  %10 = tail call ptr @proto_tree_add_item(ptr noundef %2, i32 noundef %9, ptr noundef %0, i32 noundef %3, i32 noundef 3, i32 noundef 0)
  %11 = tail call zeroext i16 @tvb_get_ntohs(ptr noundef %0, i32 noundef %3)
  %12 = zext i16 %11 to i32
  %13 = and i32 %12, 512
  %.not = icmp eq i32 %13, 0
  %14 = and i32 %12, 256
  %.not78 = icmp eq i32 %14, 0
  %15 = load i32, ptr @hf_lisp_mreg_flags_xtrid, align 4
  %16 = tail call ptr @proto_tree_add_item(ptr noundef %2, i32 noundef %15, ptr noundef %0, i32 noundef %3, i32 noundef 3, i32 noundef 0)
  %17 = load i32, ptr @hf_lisp_mreg_flags_rtr, align 4
  %18 = tail call ptr @proto_tree_add_item(ptr noundef %2, i32 noundef %17, ptr noundef %0, i32 noundef %3, i32 noundef 3, i32 noundef 0)
  br i1 %.not78, label %22, label %19

19:                                               ; preds = %6
  %20 = getelementptr inbounds nuw i8, ptr %1, i64 8
  %21 = load ptr, ptr %20, align 8
  tail call void @col_append_str(ptr noundef %21, i32 noundef 25, ptr noundef nonnull @.str.19)
  br label %22

22:                                               ; preds = %19, %6
  %23 = load i32, ptr @hf_lisp_mreg_res, align 4
  %24 = tail call ptr @proto_tree_add_item(ptr noundef %2, i32 noundef %23, ptr noundef %0, i32 noundef %3, i32 noundef 3, i32 noundef 0)
  %25 = load i32, ptr @hf_lisp_mreg_flags_wmn, align 4
  %26 = tail call ptr @proto_tree_add_item(ptr noundef %2, i32 noundef %25, ptr noundef %0, i32 noundef %3, i32 noundef 3, i32 noundef 0)
  %27 = add i32 %3, 3
  %28 = tail call zeroext i8 @tvb_get_uint8(ptr noundef %0, i32 noundef %27)
  %29 = load i32, ptr @hf_lisp_records, align 4
  %30 = tail call ptr @proto_tree_add_item(ptr noundef %2, i32 noundef %29, ptr noundef %0, i32 noundef %27, i32 noundef 1, i32 noundef 0)
  %31 = add i32 %3, 4
  %32 = load i32, ptr @hf_lisp_nonce, align 4
  %33 = tail call ptr @proto_tree_add_item(ptr noundef %2, i32 noundef %32, ptr noundef %0, i32 noundef %31, i32 noundef 8, i32 noundef 0)
  %34 = add i32 %3, 12
  %35 = load i32, ptr @hf_lisp_keyid, align 4
  %36 = tail call ptr @proto_tree_add_item(ptr noundef %2, i32 noundef %35, ptr noundef %0, i32 noundef %34, i32 noundef 2, i32 noundef 0)
  %37 = add i32 %3, 14
  %38 = tail call zeroext i16 @tvb_get_ntohs(ptr noundef %0, i32 noundef %37)
  %39 = load i32, ptr @hf_lisp_authlen, align 4
  %40 = tail call ptr @proto_tree_add_item(ptr noundef %2, i32 noundef %39, ptr noundef %0, i32 noundef %37, i32 noundef 2, i32 noundef 0)
  %41 = add i32 %3, 16
  %42 = load i32, ptr @hf_lisp_auth, align 4
  %43 = zext i16 %38 to i32
  %44 = tail call ptr @proto_tree_add_item(ptr noundef %2, i32 noundef %42, ptr noundef %0, i32 noundef %41, i32 noundef %43, i32 noundef 0)
  %45 = add i32 %41, %43
  %46 = zext i8 %28 to i32
  %.not81 = icmp eq i8 %28, 0
  br i1 %.not81, label %._crit_edge, label %.lr.ph

.lr.ph:                                           ; preds = %22, %.lr.ph
  %.07680 = phi i32 [ %48, %.lr.ph ], [ %45, %22 ]
  %.07779 = phi i32 [ %47, %.lr.ph ], [ 0, %22 ]
  %47 = add nuw nsw i32 %.07779, 1
  %48 = tail call i32 @dissect_lisp_mapping(ptr noundef %0, ptr noundef %1, ptr noundef %2, i8 noundef zeroext %28, i32 noundef %47, i1 noundef zeroext false, i32 noundef %.07680, ptr noundef %4)
  %exitcond.not = icmp eq i32 %47, %46
  br i1 %exitcond.not, label %._crit_edge, label %.lr.ph, !llvm.loop !12

._crit_edge:                                      ; preds = %.lr.ph, %22
  %.076.lcssa = phi i32 [ %45, %22 ], [ %48, %.lr.ph ]
  br i1 %.not, label %56, label %49

49:                                               ; preds = %._crit_edge
  %50 = load i32, ptr @hf_lisp_xtrid, align 4
  %51 = tail call ptr @proto_tree_add_item(ptr noundef %2, i32 noundef %50, ptr noundef %0, i32 noundef %.076.lcssa, i32 noundef 16, i32 noundef 0)
  %52 = load i32, ptr @hf_lisp_siteid, align 4
  %53 = add i32 %.076.lcssa, 16
  %54 = tail call ptr @proto_tree_add_item(ptr noundef %2, i32 noundef %52, ptr noundef %0, i32 noundef %53, i32 noundef 8, i32 noundef 0)
  %55 = add i32 %.076.lcssa, 24
  br label %56

56:                                               ; preds = %49, %._crit_edge
  %.1 = phi i32 [ %55, %49 ], [ %.076.lcssa, %._crit_edge ]
  br i1 %5, label %57, label %60

57:                                               ; preds = %56
  %58 = tail call ptr @tvb_new_subset_remaining(ptr noundef %0, i32 noundef %.1)
  %59 = tail call i32 @call_data_dissector(ptr noundef %58, ptr noundef %1, ptr noundef %2)
  br label %60

60:                                               ; preds = %56, %57
  %.0 = phi i32 [ 0, %57 ], [ %.1, %56 ]
  ret i32 %.0
}